target datalayout = "e-m:e-p270:32:32-p271:32:32-p272:64:64-i64:64-i128:128-f80:128-n8:16:32:64-S128"
target triple = "x86_64-pc-linux-gnu"

%struct.pmix_output_desc_t = type { i8, i8, i32, i8, i32, ptr, ptr, i32, ptr, i32, i8, i8, i8, i8, ptr, i32, i32 }
%struct.hwloc_obj = type { i32, ptr, i32, ptr, i64, ptr, i32, i32, ptr, ptr, ptr, i32, ptr, ptr, i32, ptr, ptr, ptr, i32, i32, ptr, i32, ptr, i32, ptr, ptr, ptr, ptr, ptr, ptr, i32, ptr, i64 }

@prte_hwloc_base_output = external global i32, align 4
@pmix_output_info = external global [0 x %struct.pmix_output_desc_t], align 8
@.str.15 = private unnamed_addr constant [25 x i8] c"help-prte-hwloc-base.txt\00", align 1
@.str.19 = private unnamed_addr constant [19 x i8] c"hwloc:base:get_idx\00", align 1
@.str.20 = private unnamed_addr constant [47 x i8] c"hwloc:base:get_idx found %u objects of type %s\00", align 1
@.str.21 = private unnamed_addr constant [15 x i8] c"obj-idx-failed\00", align 1

; Function Attrs: nounwind uwtable
define i32 @prte_hwloc_base_get_obj_idx(ptr noundef %0, ptr noundef %1) #0 {
  %3 = alloca i32, align 4
  %4 = alloca ptr, align 8
  %5 = alloca ptr, align 8
  %6 = alloca ptr, align 8
  %7 = alloca i32, align 4
  %8 = alloca i32, align 4
  %9 = alloca i32, align 4
  store ptr %0, ptr %4, align 8, !tbaa !3
  store ptr %1, ptr %5, align 8, !tbaa !8
  call void @llvm.lifetime.start.p0(i64 8, ptr %6) #10
  call void @llvm.lifetime.start.p0(i64 4, ptr %7) #10
  call void @llvm.lifetime.start.p0(i64 4, ptr %8) #10
  %10 = load i32, ptr @prte_hwloc_base_output, align 4, !tbaa !19
  %11 = icmp sge i32 %10, 0
  br i1 %11, label %12, label %24

12:                                               ; preds = %2
  %13 = load i32, ptr @prte_hwloc_base_output, align 4, !tbaa !19
  %14 = icmp slt i32 %13, 64
  br i1 %14, label %15, label %24

15:                                               ; preds = %12
  %16 = load i32, ptr @prte_hwloc_base_output, align 4, !tbaa !19
  %17 = sext i32 %16 to i64
  %18 = getelementptr inbounds [0 x %struct.pmix_output_desc_t], ptr @pmix_output_info, i64 0, i64 %17
  %19 = getelementptr inbounds nuw %struct.pmix_output_desc_t, ptr %18, i32 0, i32 2
  %20 = load i32, ptr %19, align 4, !tbaa !24
  %21 = icmp sge i32 %20, 5
  br i1 %21, label %22, label %24

22:                                               ; preds = %15
  %23 = load i32, ptr @prte_hwloc_base_output, align 4, !tbaa !19
  call void (i32, ptr, ...) @pmix_output(i32 noundef %23, ptr noundef @.str.19)
  br label %24

24:                                               ; preds = %22, %15, %12, %2
  %25 = load ptr, ptr %4, align 8, !tbaa !3
  %26 = load ptr, ptr %5, align 8, !tbaa !8
  %27 = getelementptr inbounds nuw %struct.hwloc_obj, ptr %26, i32 0, i32 0
  %28 = load i32, ptr %27, align 8, !tbaa !96
  %29 = call i32 @prte_hwloc_base_get_nbobjs_by_type(ptr noundef %25, i32 noundef %28)
  store i32 %29, ptr %7, align 4, !tbaa !19
  %30 = load i32, ptr @prte_hwloc_base_output, align 4, !tbaa !19
  %31 = icmp sge i32 %30, 0
  br i1 %31, label %32, label %49

32:                                               ; preds = %24
  %33 = load i32, ptr @prte_hwloc_base_output, align 4, !tbaa !19
  %34 = icmp slt i32 %33, 64
  br i1 %34, label %35, label %49

35:                                               ; preds = %32
  %36 = load i32, ptr @prte_hwloc_base_output, align 4, !tbaa !19
  %37 = sext i32 %36 to i64
  %38 = getelementptr inbounds [0 x %struct.pmix_output_desc_t], ptr @pmix_output_info, i64 0, i64 %37
  %39 = getelementptr inbounds nuw %struct.pmix_output_desc_t, ptr %38, i32 0, i32 2
  %40 = load i32, ptr %39, align 4, !tbaa !24
  %41 = icmp sge i32 %40, 5
  br i1 %41, label %42, label %49

42:                                               ; preds = %35
  %43 = load i32, ptr @prte_hwloc_base_output, align 4, !tbaa !19
  %44 = load i32, ptr %7, align 4, !tbaa !19
  %45 = load ptr, ptr %5, align 8, !tbaa !8
  %46 = getelementptr inbounds nuw %struct.hwloc_obj, ptr %45, i32 0, i32 0
  %47 = load i32, ptr %46, align 8, !tbaa !96
  %48 = call ptr @hwloc_obj_type_string(i32 noundef %47) #13
  call void (i32, ptr, ...) @pmix_output(i32 noundef %43, ptr noundef @.str.20, i32 noundef %44, ptr noundef %48)
  br label %49

49:                                               ; preds = %42, %35, %32, %24
  store i32 0, ptr %8, align 4, !tbaa !19
  br label %50

50:                                               ; preds = %67, %49
  %51 = load i32, ptr %8, align 4, !tbaa !19
  %52 = load i32, ptr %7, align 4, !tbaa !19
  %53 = icmp ult i32 %51, %52
  br i1 %53, label %54, label %70

54:                                               ; preds = %50
  %55 = load ptr, ptr %4, align 8, !tbaa !3
  %56 = load ptr, ptr %5, align 8, !tbaa !8
  %57 = getelementptr inbounds nuw %struct.hwloc_obj, ptr %56, i32 0, i32 0
  %58 = load i32, ptr %57, align 8, !tbaa !96
  %59 = load i32, ptr %8, align 4, !tbaa !19
  %60 = call ptr @prte_hwloc_base_get_obj_by_type(ptr noundef %55, i32 noundef %58, i32 noundef %59)
  store ptr %60, ptr %6, align 8, !tbaa !8
  %61 = load ptr, ptr %6, align 8, !tbaa !8
  %62 = load ptr, ptr %5, align 8, !tbaa !8
  %63 = icmp eq ptr %61, %62
  br i1 %63, label %64, label %66

64:                                               ; preds = %54
  %65 = load i32, ptr %8, align 4, !tbaa !19
  store i32 %65, ptr %3, align 4
  store i32 1, ptr %9, align 4
  br label %76

66:                                               ; preds = %54
  br label %67

67:                                               ; preds = %66
  %68 = load i32, ptr %8, align 4, !tbaa !19
  %69 = add i32 %68, 1
  store i32 %69, ptr %8, align 4, !tbaa !19
  br label %50, !llvm.loop !97

70:                                               ; preds = %50
  %71 = load ptr, ptr %5, align 8, !tbaa !8
  %72 = getelementptr inbounds nuw %struct.hwloc_obj, ptr %71, i32 0, i32 0
  %73 = load i32, ptr %72, align 8, !tbaa !96
  %74 = call ptr @hwloc_obj_type_string(i32 noundef %73) #13
  %75 = call i32 (ptr, ptr, i32, ...) @pmix_show_help(ptr noundef @.str.15, ptr noundef @.str.21, i32 noundef 1, ptr noundef %74)
  store i32 -1, ptr %3, align 4
  store i32 1, ptr %9, align 4
  br label %76

76:                                               ; preds = %70, %64
  call void @llvm.lifetime.end.p0(i64 4, ptr %8) #10
  call void @llvm.lifetime.end.p0(i64 4, ptr %7) #10
  call void @llvm.lifetime.end.p0(i64 8, ptr %6) #10
  %77 = load i32, ptr %3, align 4
  ret i32 %77
}