; Function Attrs: nounwind uwtable
define noundef i32 @prte_hwloc_base_get_obj_idx(ptr noundef %0, ptr noundef readonly captures(address) %1) local_unnamed_addr #0 {
  %3 = load i32, ptr @prte_hwloc_base_output, align 4, !tbaa !16
  %or.cond = icmp ult i32 %3, 64
  br i1 %or.cond, label %4, label %10

4:                                                ; preds = %2
  %5 = zext nneg i32 %3 to i64
  %6 = getelementptr inbounds nuw [0 x %struct.pmix_output_desc_t], ptr @pmix_output_info, i64 0, i64 %5, i32 2
  %7 = load i32, ptr %6, align 4, !tbaa !17
  %8 = icmp sgt i32 %7, 4
  br i1 %8, label %9, label %10

9:                                                ; preds = %4
  tail call void (i32, ptr, ...) @pmix_output(i32 noundef %3, ptr noundef nonnull @.str.19) #18
  br label %10

10:                                               ; preds = %9, %4, %2
  %11 = load i32, ptr %1, align 8, !tbaa !81
  %12 = tail call i32 @prte_hwloc_base_get_nbobjs_by_type(ptr noundef %0, i32 noundef %11)
  %13 = load i32, ptr @prte_hwloc_base_output, align 4, !tbaa !16
  %or.cond3 = icmp ult i32 %13, 64
  br i1 %or.cond3, label %14, label %22

14:                                               ; preds = %10
  %15 = zext nneg i32 %13 to i64
  %16 = getelementptr inbounds nuw [0 x %struct.pmix_output_desc_t], ptr @pmix_output_info, i64 0, i64 %15, i32 2
  %17 = load i32, ptr %16, align 4, !tbaa !17
  %18 = icmp sgt i32 %17, 4
  br i1 %18, label %19, label %22

19:                                               ; preds = %14
  %20 = load i32, ptr %1, align 8, !tbaa !81
  %21 = tail call ptr @hwloc_obj_type_string(i32 noundef %20) #21
  tail call void (i32, ptr, ...) @pmix_output(i32 noundef %13, ptr noundef nonnull @.str.20, i32 noundef %12, ptr noundef %21) #18
  br label %22

22:                                               ; preds = %19, %14, %10
  %.not = icmp eq i32 %12, 0
  br i1 %.not, label %._crit_edge, label %.lr.ph

.lr.ph:                                           ; preds = %22, %26
  %.021 = phi i32 [ %27, %26 ], [ 0, %22 ]
  %23 = load i32, ptr %1, align 8, !tbaa !81
  %24 = tail call ptr @prte_hwloc_base_get_obj_by_type(ptr noundef %0, i32 noundef %23, i32 noundef %.021)
  %25 = icmp eq ptr %24, %1
  br i1 %25, label %.loopexit, label %26

26:                                               ; preds = %.lr.ph
  %27 = add nuw i32 %.021, 1
  %exitcond.not = icmp eq i32 %27, %12
  br i1 %exitcond.not, label %._crit_edge, label %.lr.ph, !llvm.loop !82

._crit_edge:                                      ; preds = %26, %22
  %28 = load i32, ptr %1, align 8, !tbaa !81
  %29 = tail call ptr @hwloc_obj_type_string(i32 noundef %28) #21
  %30 = tail call i32 (ptr, ptr, i32, ...) @pmix_show_help(ptr noundef nonnull @.str.15, ptr noundef nonnull @.str.21, i32 noundef 1, ptr noundef %29) #18
  br label %.loopexit

.loopexit:                                        ; preds = %.lr.ph, %._crit_edge
  %.017 = phi i32 [ -1, %._crit_edge ], [ %.021, %.lr.ph ]
  ret i32 %.017
}